ccollections
defaultdict
p1
(c__builtin__
list
p2
tRp3
I0
(lp4
sV1481271329381
p5
(lp6
(dp7
S'dict'
p8
V
sS'checked'
p9
I00
sS'fld_ord'
p10
I0
sS'dict_field'
p11
V
sa(dp12
g8
VMdx\u670d\u52a1\u5668
p13
sg9
I01
sg10
I1
sg11
Vhttp://www.vleon.me/mdict/collins-cn/
p14
sasS'last'
p15
g5
s.